target datalayout = "e-m:e-p270:32:32-p271:32:32-p272:64:64-i64:64-i128:128-f80:128-n8:16:32:64-S128"
target triple = "x86_64-pc-linux-gnu"

%"class.toku::treenode" = type <{ %struct.toku_mutex_t, %"class.toku::keyrange", i64, i8, [7 x i8], ptr, %"struct.toku::treenode::child_ptr", %"struct.toku::treenode::child_ptr", ptr, i8, i8, [6 x i8] }>
%struct.toku_mutex_t = type { %union.pthread_mutex_t, ptr }
%union.pthread_mutex_t = type { %struct.__pthread_mutex_s }
%struct.__pthread_mutex_s = type { i32, i32, i32, i32, i32, i16, i16, %struct.__pthread_internal_list }
%struct.__pthread_internal_list = type { ptr, ptr }
%"class.toku::keyrange" = type <{ %struct.__toku_dbt, %struct.__toku_dbt, ptr, ptr, i8, [7 x i8] }>
%struct.__toku_dbt = type { ptr, i64, i64, i32 }
%"struct.toku::treenode::child_ptr" = type { ptr, i32 }

; Function Attrs: mustprogress nounwind uwtable
define void @_ZN4toku8treenode13swap_in_placeEPS0_S1_(ptr noundef %0, ptr noundef %1) #5 align 2 {
  %3 = alloca ptr, align 8
  %4 = alloca ptr, align 8
  %5 = alloca %"class.toku::keyrange", align 8
  %6 = alloca i64, align 8
  %7 = alloca i8, align 1
  %8 = alloca ptr, align 8
  store ptr %0, ptr %3, align 8, !tbaa !4
  store ptr %1, ptr %4, align 8, !tbaa !4
  call void @llvm.lifetime.start.p0(i64 88, ptr %5) #16
  %9 = load ptr, ptr %3, align 8, !tbaa !4
  %10 = getelementptr inbounds nuw %"class.toku::treenode", ptr %9, i32 0, i32 1
  call void @llvm.memcpy.p0.p0.i64(ptr align 8 %5, ptr align 8 %10, i64 88, i1 false), !tbaa.struct !47
  call void @llvm.lifetime.start.p0(i64 8, ptr %6) #16
  %11 = load ptr, ptr %3, align 8, !tbaa !4
  %12 = getelementptr inbounds nuw %"class.toku::treenode", ptr %11, i32 0, i32 2
  %13 = load i64, ptr %12, align 8, !tbaa !20
  store i64 %13, ptr %6, align 8, !tbaa !45
  %14 = load ptr, ptr %4, align 8, !tbaa !4
  %15 = getelementptr inbounds nuw %"class.toku::treenode", ptr %14, i32 0, i32 1
  %16 = load ptr, ptr %3, align 8, !tbaa !4
  %17 = getelementptr inbounds nuw %"class.toku::treenode", ptr %16, i32 0, i32 1
  call void @llvm.memcpy.p0.p0.i64(ptr align 8 %17, ptr align 8 %15, i64 81, i1 false), !tbaa.struct !47
  %18 = load ptr, ptr %4, align 8, !tbaa !4
  %19 = getelementptr inbounds nuw %"class.toku::treenode", ptr %18, i32 0, i32 2
  %20 = load i64, ptr %19, align 8, !tbaa !20
  %21 = load ptr, ptr %3, align 8, !tbaa !4
  %22 = getelementptr inbounds nuw %"class.toku::treenode", ptr %21, i32 0, i32 2
  store i64 %20, ptr %22, align 8, !tbaa !20
  %23 = load ptr, ptr %4, align 8, !tbaa !4
  %24 = getelementptr inbounds nuw %"class.toku::treenode", ptr %23, i32 0, i32 1
  call void @llvm.memcpy.p0.p0.i64(ptr align 8 %24, ptr align 8 %5, i64 81, i1 false), !tbaa.struct !47
  %25 = load i64, ptr %6, align 8, !tbaa !45
  %26 = load ptr, ptr %4, align 8, !tbaa !4
  %27 = getelementptr inbounds nuw %"class.toku::treenode", ptr %26, i32 0, i32 2
  store i64 %25, ptr %27, align 8, !tbaa !20
  call void @llvm.lifetime.start.p0(i64 1, ptr %7) #16
  %28 = load ptr, ptr %3, align 8, !tbaa !4
  %29 = getelementptr inbounds nuw %"class.toku::treenode", ptr %28, i32 0, i32 3
  %30 = load i8, ptr %29, align 8, !tbaa !32, !range !41, !noundef !42
  %31 = trunc i8 %30 to i1
  %32 = zext i1 %31 to i8
  store i8 %32, ptr %7, align 1, !tbaa !46
  %33 = load ptr, ptr %4, align 8, !tbaa !4
  %34 = getelementptr inbounds nuw %"class.toku::treenode", ptr %33, i32 0, i32 3
  %35 = load i8, ptr %34, align 8, !tbaa !32, !range !41, !noundef !42
  %36 = trunc i8 %35 to i1
  %37 = load ptr, ptr %3, align 8, !tbaa !4
  %38 = getelementptr inbounds nuw %"class.toku::treenode", ptr %37, i32 0, i32 3
  %39 = zext i1 %36 to i8
  store i8 %39, ptr %38, align 8, !tbaa !32
  %40 = load i8, ptr %7, align 1, !tbaa !46, !range !41, !noundef !42
  %41 = trunc i8 %40 to i1
  %42 = load ptr, ptr %4, align 8, !tbaa !4
  %43 = getelementptr inbounds nuw %"class.toku::treenode", ptr %42, i32 0, i32 3
  %44 = zext i1 %41 to i8
  store i8 %44, ptr %43, align 8, !tbaa !32
  call void @llvm.lifetime.start.p0(i64 8, ptr %8) #16
  %45 = load ptr, ptr %3, align 8, !tbaa !4
  %46 = getelementptr inbounds nuw %"class.toku::treenode", ptr %45, i32 0, i32 5
  %47 = load ptr, ptr %46, align 8, !tbaa !33
  store ptr %47, ptr %8, align 8, !tbaa !49
  %48 = load ptr, ptr %4, align 8, !tbaa !4
  %49 = getelementptr inbounds nuw %"class.toku::treenode", ptr %48, i32 0, i32 5
  %50 = load ptr, ptr %49, align 8, !tbaa !33
  %51 = load ptr, ptr %3, align 8, !tbaa !4
  %52 = getelementptr inbounds nuw %"class.toku::treenode", ptr %51, i32 0, i32 5
  store ptr %50, ptr %52, align 8, !tbaa !33
  %53 = load ptr, ptr %8, align 8, !tbaa !49
  %54 = load ptr, ptr %4, align 8, !tbaa !4
  %55 = getelementptr inbounds nuw %"class.toku::treenode", ptr %54, i32 0, i32 5
  store ptr %53, ptr %55, align 8, !tbaa !33
  call void @llvm.lifetime.end.p0(i64 8, ptr %8) #16
  call void @llvm.lifetime.end.p0(i64 1, ptr %7) #16
  call void @llvm.lifetime.end.p0(i64 8, ptr %6) #16
  call void @llvm.lifetime.end.p0(i64 88, ptr %5) #16
  ret void
}