; Function Attrs: mustprogress nofree norecurse nosync nounwind willreturn memory(argmem: readwrite) uwtable
define void @_ZN4toku8treenode13swap_in_placeEPS0_S1_(ptr noundef captures(none) %0, ptr noundef captures(none) %1) local_unnamed_addr #3 align 2 {
  %3 = alloca %"class.toku::keyrange", align 8
  call void @llvm.lifetime.start.p0(i64 88, ptr nonnull %3)
  %4 = getelementptr inbounds nuw i8, ptr %0, i64 48
  call void @llvm.memcpy.p0.p0.i64(ptr noundef nonnull align 8 dereferenceable(88) %3, ptr noundef nonnull align 8 dereferenceable(88) %4, i64 88, i1 false), !tbaa.struct !32
  %5 = getelementptr inbounds nuw i8, ptr %0, i64 136
  %6 = load i64, ptr %5, align 8, !tbaa !4
  %7 = getelementptr inbounds nuw i8, ptr %1, i64 48
  tail call void @llvm.memcpy.p0.p0.i64(ptr noundef nonnull align 8 dereferenceable(81) %4, ptr noundef nonnull align 8 dereferenceable(81) %7, i64 81, i1 false), !tbaa.struct !32
  %8 = getelementptr inbounds nuw i8, ptr %1, i64 136
  %9 = load i64, ptr %8, align 8, !tbaa !4
  store i64 %9, ptr %5, align 8, !tbaa !4
  call void @llvm.memcpy.p0.p0.i64(ptr noundef nonnull align 8 dereferenceable(81) %7, ptr noundef nonnull align 8 dereferenceable(81) %3, i64 81, i1 false), !tbaa.struct !32
  store i64 %6, ptr %8, align 8, !tbaa !4
  %10 = getelementptr inbounds nuw i8, ptr %0, i64 144
  %11 = load i8, ptr %10, align 8, !tbaa !24, !range !30, !noundef !31
  %12 = getelementptr inbounds nuw i8, ptr %1, i64 144
  %13 = load i8, ptr %12, align 8, !tbaa !24, !range !30, !noundef !31
  store i8 %13, ptr %10, align 8, !tbaa !24
  store i8 %11, ptr %12, align 8, !tbaa !24
  %14 = getelementptr inbounds nuw i8, ptr %0, i64 152
  %15 = load ptr, ptr %14, align 8, !tbaa !25
  %16 = getelementptr inbounds nuw i8, ptr %1, i64 152
  %17 = load ptr, ptr %16, align 8, !tbaa !25
  store ptr %17, ptr %14, align 8, !tbaa !25
  store ptr %15, ptr %16, align 8, !tbaa !25
  call void @llvm.lifetime.end.p0(i64 88, ptr nonnull %3)
  ret void
}